target datalayout = "e-m:e-p270:32:32-p271:32:32-p272:64:64-i64:64-i128:128-f80:128-n8:16:32:64-S128"
target triple = "x86_64-pc-linux-gnu"

%struct.HashJoinTableData = type { i32, i32, i32, i32, i32, %union.anon, i8, ptr, i32, i32, ptr, i32, i32, i32, i32, i8, double, double, double, ptr, ptr, i64, i64, i64, i64, i64, ptr, ptr, ptr, ptr, ptr, ptr, ptr, ptr, i64 }
%union.anon = type { ptr }
%struct.pg_atomic_uint64 = type { i64 }
%struct.MinimalTupleData = type { i32, [6 x i8], i16, i16, i8, [0 x i8] }
%struct.HashJoinTupleData = type { %union.anon.0, i32 }
%union.anon.0 = type { ptr }

; Function Attrs: inlinehint nounwind uwtable
define internal zeroext i1 @pg_atomic_compare_exchange_u64_impl(ptr noundef %0, ptr noundef %1, i64 noundef %2) #3 {
  %4 = alloca ptr, align 8
  %5 = alloca ptr, align 8
  %6 = alloca i64, align 8
  %7 = alloca i8, align 1
  store ptr %0, ptr %4, align 8
  store ptr %1, ptr %5, align 8
  store i64 %2, ptr %6, align 8
  call void @llvm.lifetime.start.p0(i64 1, ptr %7) #9
  %8 = load ptr, ptr %5, align 8
  %9 = load ptr, ptr %4, align 8
  %10 = getelementptr inbounds nuw %struct.pg_atomic_uint64, ptr %9, i32 0, i32 0
  %11 = load ptr, ptr %5, align 8
  %12 = load i64, ptr %11, align 8
  %13 = load i64, ptr %6, align 8
  %14 = load ptr, ptr %4, align 8
  %15 = getelementptr inbounds nuw %struct.pg_atomic_uint64, ptr %14, i32 0, i32 0
  %16 = call { i64, i8 } asm sideeffect "\09lock\09\09\09\09\0A\09cmpxchgq\09$4,$5\09\0A   setz\09\09$2\09\09\0A", "={ax},=*m,=q,{ax},r,*m,~{memory},~{cc},~{dirflag},~{fpsr},~{flags}"(ptr elementtype(i64) %10, i64 %12, i64 %13, ptr elementtype(i64) %15) #9, !srcloc !46
  %17 = extractvalue { i64, i8 } %16, 0
  %18 = extractvalue { i64, i8 } %16, 1
  store i64 %17, ptr %8, align 8
  store i8 %18, ptr %7, align 1
  %19 = load i8, ptr %7, align 1
  %20 = icmp ne i8 %19, 0
  call void @llvm.lifetime.end.p0(i64 1, ptr %7) #9
  ret i1 %20
}

; Function Attrs: inlinehint nounwind uwtable
define internal i64 @pg_atomic_read_u64_impl(ptr noundef %0) #3 {
  %2 = alloca ptr, align 8
  store ptr %0, ptr %2, align 8
  %3 = load ptr, ptr %2, align 8
  %4 = getelementptr inbounds nuw %struct.pg_atomic_uint64, ptr %3, i32 0, i32 0
  %5 = load volatile i64, ptr %4, align 8
  ret i64 %5
}

; Function Attrs: inlinehint nounwind uwtable
define internal zeroext i1 @pg_atomic_compare_exchange_u64(ptr noundef %0, ptr noundef %1, i64 noundef %2) #3 {
  %4 = alloca ptr, align 8
  %5 = alloca ptr, align 8
  %6 = alloca i64, align 8
  store ptr %0, ptr %4, align 8
  store ptr %1, ptr %5, align 8
  store i64 %2, ptr %6, align 8
  %7 = load ptr, ptr %4, align 8
  %8 = load ptr, ptr %5, align 8
  %9 = load i64, ptr %6, align 8
  %10 = call zeroext i1 @pg_atomic_compare_exchange_u64_impl(ptr noundef %7, ptr noundef %8, i64 noundef %9)
  ret i1 %10
}

; Function Attrs: inlinehint nounwind uwtable
define internal i64 @pg_atomic_read_u64(ptr noundef %0) #3 {
  %2 = alloca ptr, align 8
  store ptr %0, ptr %2, align 8
  %3 = load ptr, ptr %2, align 8
  %4 = call i64 @pg_atomic_read_u64_impl(ptr noundef %3)
  ret i64 %4
}

; Function Attrs: inlinehint nounwind uwtable
define internal i32 @pg_rotate_right32(i32 noundef %0, i32 noundef %1) #3 {
  %3 = alloca i32, align 4
  %4 = alloca i32, align 4
  store i32 %0, ptr %3, align 4
  store i32 %1, ptr %4, align 4
  %5 = load i32, ptr %3, align 4
  %6 = load i32, ptr %4, align 4
  %7 = lshr i32 %5, %6
  %8 = load i32, ptr %3, align 4
  %9 = load i32, ptr %4, align 4
  %10 = sub i32 32, %9
  %11 = shl i32 %8, %10
  %12 = or i32 %7, %11
  ret i32 %12
}

; Function Attrs: inlinehint nounwind uwtable
define internal void @ExecParallelHashPushTuple(ptr noundef %0, ptr noundef %1, i64 noundef %2) #3 {
  %4 = alloca ptr, align 8
  %5 = alloca ptr, align 8
  %6 = alloca i64, align 8
  store ptr %0, ptr %4, align 8
  store ptr %1, ptr %5, align 8
  store i64 %2, ptr %6, align 8
  br label %7

7:                                                ; preds = %18, %3
  %8 = load ptr, ptr %4, align 8
  %9 = call i64 @pg_atomic_read_u64(ptr noundef %8)
  %10 = load ptr, ptr %5, align 8
  %11 = getelementptr inbounds nuw %struct.HashJoinTupleData, ptr %10, i32 0, i32 0
  store i64 %9, ptr %11, align 8
  %12 = load ptr, ptr %4, align 8
  %13 = load ptr, ptr %5, align 8
  %14 = getelementptr inbounds nuw %struct.HashJoinTupleData, ptr %13, i32 0, i32 0
  %15 = load i64, ptr %6, align 8
  %16 = call zeroext i1 @pg_atomic_compare_exchange_u64(ptr noundef %12, ptr noundef %14, i64 noundef %15)
  br i1 %16, label %17, label %18

17:                                               ; preds = %7
  br label %19

18:                                               ; preds = %7
  br label %7

19:                                               ; preds = %17
  ret void
}

; Function Attrs: inlinehint nounwind uwtable
define internal void @HeapTupleHeaderClearMatch(ptr noundef %0) #3 {
  %2 = alloca ptr, align 8
  store ptr %0, ptr %2, align 8
  %3 = load ptr, ptr %2, align 8
  %4 = getelementptr inbounds nuw %struct.MinimalTupleData, ptr %3, i32 0, i32 2
  %5 = load i16, ptr %4, align 2
  %6 = zext i16 %5 to i32
  %7 = and i32 %6, -32769
  %8 = trunc i32 %7 to i16
  store i16 %8, ptr %4, align 2
  ret void
}

; Function Attrs: nounwind uwtable
define dso_local void @ExecHashGetBucketAndBatch(ptr noundef %0, i32 noundef %1, ptr noundef %2, ptr noundef %3) #0 {
  %5 = alloca ptr, align 8
  %6 = alloca i32, align 4
  %7 = alloca ptr, align 8
  %8 = alloca ptr, align 8
  %9 = alloca i32, align 4
  %10 = alloca i32, align 4
  store ptr %0, ptr %5, align 8
  store i32 %1, ptr %6, align 4
  store ptr %2, ptr %7, align 8
  store ptr %3, ptr %8, align 8
  call void @llvm.lifetime.start.p0(i64 4, ptr %9) #9
  %11 = load ptr, ptr %5, align 8
  %12 = getelementptr inbounds nuw %struct.HashJoinTableData, ptr %11, i32 0, i32 0
  %13 = load i32, ptr %12, align 8
  store i32 %13, ptr %9, align 4
  call void @llvm.lifetime.start.p0(i64 4, ptr %10) #9
  %14 = load ptr, ptr %5, align 8
  %15 = getelementptr inbounds nuw %struct.HashJoinTableData, ptr %14, i32 0, i32 11
  %16 = load i32, ptr %15, align 8
  store i32 %16, ptr %10, align 4
  %17 = load i32, ptr %10, align 4
  %18 = icmp ugt i32 %17, 1
  br i1 %18, label %19, label %34

19:                                               ; preds = %4
  %20 = load i32, ptr %6, align 4
  %21 = load i32, ptr %9, align 4
  %22 = sub i32 %21, 1
  %23 = and i32 %20, %22
  %24 = load ptr, ptr %7, align 8
  store i32 %23, ptr %24, align 4
  %25 = load i32, ptr %6, align 4
  %26 = load ptr, ptr %5, align 8
  %27 = getelementptr inbounds nuw %struct.HashJoinTableData, ptr %26, i32 0, i32 1
  %28 = load i32, ptr %27, align 4
  %29 = call i32 @pg_rotate_right32(i32 noundef %25, i32 noundef %28)
  %30 = load i32, ptr %10, align 4
  %31 = sub i32 %30, 1
  %32 = and i32 %29, %31
  %33 = load ptr, ptr %8, align 8
  store i32 %32, ptr %33, align 4
  br label %41

34:                                               ; preds = %4
  %35 = load i32, ptr %6, align 4
  %36 = load i32, ptr %9, align 4
  %37 = sub i32 %36, 1
  %38 = and i32 %35, %37
  %39 = load ptr, ptr %7, align 8
  store i32 %38, ptr %39, align 4
  %40 = load ptr, ptr %8, align 8
  store i32 0, ptr %40, align 4
  br label %41

41:                                               ; preds = %34, %19
  call void @llvm.lifetime.end.p0(i64 4, ptr %10) #9
  call void @llvm.lifetime.end.p0(i64 4, ptr %9) #9
  ret void
}

; Function Attrs: nounwind uwtable
define dso_local void @ExecParallelHashTableInsertCurrentBatch(ptr noundef %0, ptr noundef %1, i32 noundef %2) #0 {
  %4 = alloca ptr, align 8
  %5 = alloca ptr, align 8
  %6 = alloca i32, align 4
  %7 = alloca i8, align 1
  %8 = alloca ptr, align 8
  %9 = alloca ptr, align 8
  %10 = alloca i64, align 8
  %11 = alloca i32, align 4
  %12 = alloca i32, align 4
  store ptr %0, ptr %4, align 8
  store ptr %1, ptr %5, align 8
  store i32 %2, ptr %6, align 4
  call void @llvm.lifetime.start.p0(i64 1, ptr %7) #9
  call void @llvm.lifetime.start.p0(i64 8, ptr %8) #9
  %13 = load ptr, ptr %5, align 8
  %14 = call ptr @ExecFetchSlotMinimalTuple(ptr noundef %13, ptr noundef %7)
  store ptr %14, ptr %8, align 8
  call void @llvm.lifetime.start.p0(i64 8, ptr %9) #9
  call void @llvm.lifetime.start.p0(i64 8, ptr %10) #9
  call void @llvm.lifetime.start.p0(i64 4, ptr %11) #9
  call void @llvm.lifetime.start.p0(i64 4, ptr %12) #9
  %15 = load ptr, ptr %4, align 8
  %16 = load i32, ptr %6, align 4
  call void @ExecHashGetBucketAndBatch(ptr noundef %15, i32 noundef %16, ptr noundef %12, ptr noundef %11)
  %17 = load ptr, ptr %4, align 8
  %18 = load ptr, ptr %8, align 8
  %19 = getelementptr inbounds nuw %struct.MinimalTupleData, ptr %18, i32 0, i32 0
  %20 = load i32, ptr %19, align 4
  %21 = zext i32 %20 to i64
  %22 = add i64 16, %21
  %23 = call ptr @ExecParallelHashTupleAlloc(ptr noundef %17, i64 noundef %22, ptr noundef %10)
  store ptr %23, ptr %9, align 8
  %24 = load i32, ptr %6, align 4
  %25 = load ptr, ptr %9, align 8
  %26 = getelementptr inbounds nuw %struct.HashJoinTupleData, ptr %25, i32 0, i32 1
  store i32 %24, ptr %26, align 8
  %27 = load ptr, ptr %9, align 8
  %28 = getelementptr inbounds nuw i8, ptr %27, i64 16
  %29 = load ptr, ptr %8, align 8
  %30 = load ptr, ptr %8, align 8
  %31 = getelementptr inbounds nuw %struct.MinimalTupleData, ptr %30, i32 0, i32 0
  %32 = load i32, ptr %31, align 4
  %33 = zext i32 %32 to i64
  call void @llvm.memcpy.p0.p0.i64(ptr align 4 %28, ptr align 4 %29, i64 %33, i1 false)
  %34 = load ptr, ptr %9, align 8
  %35 = getelementptr inbounds nuw i8, ptr %34, i64 16
  call void @HeapTupleHeaderClearMatch(ptr noundef %35)
  %36 = load ptr, ptr %4, align 8
  %37 = getelementptr inbounds nuw %struct.HashJoinTableData, ptr %36, i32 0, i32 5
  %38 = load ptr, ptr %37, align 8
  %39 = load i32, ptr %12, align 4
  %40 = sext i32 %39 to i64
  %41 = getelementptr inbounds %struct.pg_atomic_uint64, ptr %38, i64 %40
  %42 = load ptr, ptr %9, align 8
  %43 = load i64, ptr %10, align 8
  call void @ExecParallelHashPushTuple(ptr noundef %41, ptr noundef %42, i64 noundef %43)
  %44 = load i8, ptr %7, align 1, !range !4, !noundef !5
  %45 = trunc i8 %44 to i1
  br i1 %45, label %46, label %48

46:                                               ; preds = %3
  %47 = load ptr, ptr %8, align 8
  call void @heap_free_minimal_tuple(ptr noundef %47)
  br label %48

48:                                               ; preds = %46, %3
  call void @llvm.lifetime.end.p0(i64 4, ptr %12) #9
  call void @llvm.lifetime.end.p0(i64 4, ptr %11) #9
  call void @llvm.lifetime.end.p0(i64 8, ptr %10) #9
  call void @llvm.lifetime.end.p0(i64 8, ptr %9) #9
  call void @llvm.lifetime.end.p0(i64 8, ptr %8) #9
  call void @llvm.lifetime.end.p0(i64 1, ptr %7) #9
  ret void
}