; Function Attrs: nounwind uwtable
define dso_local void @ExecParallelHashTableInsertCurrentBatch(ptr noundef %0, ptr noundef %1, i32 noundef %2) local_unnamed_addr #0 {
ExecHashGetBucketAndBatch.exit:
  %3 = alloca i8, align 1
  %4 = alloca i64, align 8
  call void @llvm.lifetime.start.p0(i64 1, ptr nonnull %3) #16
  %5 = call ptr @ExecFetchSlotMinimalTuple(ptr noundef %1, ptr noundef nonnull %3) #16
  call void @llvm.lifetime.start.p0(i64 8, ptr nonnull %4) #16
  %6 = load i32, ptr %0, align 8
  %7 = add i32 %6, -1
  %8 = and i32 %7, %2
  %9 = load i32, ptr %5, align 4
  %10 = zext i32 %9 to i64
  %11 = add nuw nsw i64 %10, 16
  %12 = call fastcc ptr @ExecParallelHashTupleAlloc(ptr noundef nonnull %0, i64 noundef %11, ptr noundef %4)
  %13 = getelementptr inbounds nuw i8, ptr %12, i64 8
  store i32 %2, ptr %13, align 8
  %14 = getelementptr inbounds nuw i8, ptr %12, i64 16
  %15 = load i32, ptr %5, align 4
  %16 = zext i32 %15 to i64
  call void @llvm.memcpy.p0.p0.i64(ptr nonnull align 4 %14, ptr nonnull align 4 %5, i64 %16, i1 false)
  %17 = getelementptr inbounds nuw i8, ptr %12, i64 26
  %18 = load i16, ptr %17, align 2
  %19 = and i16 %18, 32767
  store i16 %19, ptr %17, align 2
  %20 = getelementptr inbounds nuw i8, ptr %0, i64 24
  %21 = load ptr, ptr %20, align 8
  %22 = sext i32 %8 to i64
  %23 = getelementptr inbounds %struct.pg_atomic_uint64, ptr %21, i64 %22
  %24 = load i64, ptr %4, align 8
  br label %25

25:                                               ; preds = %25, %ExecHashGetBucketAndBatch.exit
  %26 = load volatile i64, ptr %23, align 8
  store i64 %26, ptr %12, align 8
  %27 = call { i64, i8 } asm sideeffect "\09lock\09\09\09\09\0A\09cmpxchgq\09$4,$5\09\0A   setz\09\09$2\09\09\0A", "={ax},=*m,=q,{ax},r,*m,~{memory},~{cc},~{dirflag},~{fpsr},~{flags}"(ptr nonnull elementtype(i64) %23, i64 %26, i64 %24, ptr nonnull elementtype(i64) %23) #16, !srcloc !24
  %28 = extractvalue { i64, i8 } %27, 0
  %29 = extractvalue { i64, i8 } %27, 1
  store i64 %28, ptr %12, align 8
  %.not.i = icmp eq i8 %29, 0
  br i1 %.not.i, label %25, label %ExecParallelHashPushTuple.exit

ExecParallelHashPushTuple.exit:                   ; preds = %25
  %30 = load i8, ptr %3, align 1, !range !4, !noundef !5
  %31 = trunc nuw i8 %30 to i1
  br i1 %31, label %32, label %33

32:                                               ; preds = %ExecParallelHashPushTuple.exit
  call void @heap_free_minimal_tuple(ptr noundef nonnull %5) #16
  br label %33

33:                                               ; preds = %32, %ExecParallelHashPushTuple.exit
  call void @llvm.lifetime.end.p0(i64 8, ptr nonnull %4) #16
  call void @llvm.lifetime.end.p0(i64 1, ptr nonnull %3) #16
  ret void
}